target datalayout = "e-m:e-p270:32:32-p271:32:32-p272:64:64-i64:64-i128:128-f80:128-n8:16:32:64-S128"
target triple = "x86_64-pc-linux-gnu"

%"struct.std::_Vector_base.122" = type { %"struct.std::_Vector_base<unsigned int, std::allocator<unsigned int>>::_Vector_impl" }
%"struct.std::_Vector_base<unsigned int, std::allocator<unsigned int>>::_Vector_impl" = type { %"struct.std::_Vector_base<unsigned int, std::allocator<unsigned int>>::_Vector_impl_data" }
%"struct.std::_Vector_base<unsigned int, std::allocator<unsigned int>>::_Vector_impl_data" = type { ptr, ptr, ptr }

@_ZN8LightGBM16MultiValDenseBinIhEC1EiiiRKSt6vectorIjSaIjEE = weak_odr unnamed_addr alias void (ptr, i32, i32, i32, ptr), ptr @_ZN8LightGBM16MultiValDenseBinIhEC2EiiiRKSt6vectorIjSaIjEE
@_ZN8LightGBM16MultiValDenseBinItEC1EiiiRKSt6vectorIjSaIjEE = weak_odr unnamed_addr alias void (ptr, i32, i32, i32, ptr), ptr @_ZN8LightGBM16MultiValDenseBinItEC2EiiiRKSt6vectorIjSaIjEE
@_ZN8LightGBM16MultiValDenseBinIjEC1EiiiRKSt6vectorIjSaIjEE = weak_odr unnamed_addr alias void (ptr, i32, i32, i32, ptr), ptr @_ZN8LightGBM16MultiValDenseBinIjEC2EiiiRKSt6vectorIjSaIjEE

; Function Attrs: mustprogress nounwind uwtable
define linkonce_odr noundef nonnull align 4 dereferenceable(4) ptr @_ZNKSt6vectorIjSaIjEEixEm(ptr noundef nonnull align 8 dereferenceable(24) %0, i64 noundef %1) #0 comdat align 2 {
  %3 = alloca ptr, align 8
  %4 = alloca i64, align 8
  store ptr %0, ptr %3, align 8, !tbaa !196
  store i64 %1, ptr %4, align 8, !tbaa !37
  %5 = load ptr, ptr %3, align 8
  %6 = getelementptr inbounds nuw %"struct.std::_Vector_base.122", ptr %5, i32 0, i32 0
  %7 = getelementptr inbounds nuw %"struct.std::_Vector_base<unsigned int, std::allocator<unsigned int>>::_Vector_impl_data", ptr %6, i32 0, i32 0
  %8 = load ptr, ptr %7, align 8, !tbaa !1078
  %9 = load i64, ptr %4, align 8, !tbaa !37
  %10 = getelementptr inbounds nuw i32, ptr %8, i64 %9
  ret ptr %10
}

; Function Attrs: mustprogress nounwind uwtable
define linkonce_odr noundef i64 @_ZNKSt6vectorIjSaIjEE4sizeEv(ptr noundef nonnull align 8 dereferenceable(24) %0) #0 comdat align 2 {
  %2 = alloca ptr, align 8
  store ptr %0, ptr %2, align 8, !tbaa !196
  %3 = load ptr, ptr %2, align 8
  %4 = getelementptr inbounds nuw %"struct.std::_Vector_base.122", ptr %3, i32 0, i32 0
  %5 = getelementptr inbounds nuw %"struct.std::_Vector_base<unsigned int, std::allocator<unsigned int>>::_Vector_impl_data", ptr %4, i32 0, i32 1
  %6 = load ptr, ptr %5, align 8, !tbaa !1079
  %7 = getelementptr inbounds nuw %"struct.std::_Vector_base.122", ptr %3, i32 0, i32 0
  %8 = getelementptr inbounds nuw %"struct.std::_Vector_base<unsigned int, std::allocator<unsigned int>>::_Vector_impl_data", ptr %7, i32 0, i32 0
  %9 = load ptr, ptr %8, align 8, !tbaa !1078
  %10 = ptrtoint ptr %6 to i64
  %11 = ptrtoint ptr %9 to i64
  %12 = sub i64 %10, %11
  %13 = sdiv exact i64 %12, 4
  ret i64 %13
}

; Function Attrs: mustprogress uwtable
define noundef ptr @_ZN8LightGBM11MultiValBin22CreateMultiValDenseBinEiiiRKSt6vectorIjSaIjEE(i32 noundef %0, i32 noundef %1, i32 noundef %2, ptr noundef nonnull align 8 dereferenceable(24) %3) #1 align 2 personality ptr @__gxx_personality_v0 {
  %5 = alloca ptr, align 8
  %6 = alloca i32, align 4
  %7 = alloca i32, align 4
  %8 = alloca i32, align 4
  %9 = alloca ptr, align 8
  %10 = alloca i32, align 4
  %11 = alloca i32, align 4
  %12 = alloca i32, align 4
  %13 = alloca ptr, align 8
  %14 = alloca i32, align 4
  %15 = alloca i32, align 4
  store i32 %0, ptr %6, align 4, !tbaa !11
  store i32 %1, ptr %7, align 4, !tbaa !11
  store i32 %2, ptr %8, align 4, !tbaa !11
  store ptr %3, ptr %9, align 8, !tbaa !196
  call void @llvm.lifetime.start.p0(i64 4, ptr %10) #5
  store i32 0, ptr %10, align 4, !tbaa !11
  call void @llvm.lifetime.start.p0(i64 4, ptr %11) #5
  store i32 0, ptr %11, align 4, !tbaa !11
  br label %16

16:                                               ; preds = %43, %4
  %17 = load i32, ptr %11, align 4, !tbaa !11
  %18 = load ptr, ptr %9, align 8, !tbaa !196
  %19 = call noundef i64 @_ZNKSt6vectorIjSaIjEE4sizeEv(ptr noundef nonnull align 8 dereferenceable(24) %18) #5
  %20 = trunc i64 %19 to i32
  %21 = sub nsw i32 %20, 1
  %22 = icmp slt i32 %17, %21
  br i1 %22, label %24, label %23

23:                                               ; preds = %16
  call void @llvm.lifetime.end.p0(i64 4, ptr %11) #5
  br label %46

24:                                               ; preds = %16
  call void @llvm.lifetime.start.p0(i64 4, ptr %12) #5
  %25 = load ptr, ptr %9, align 8, !tbaa !196
  %26 = load i32, ptr %11, align 4, !tbaa !11
  %27 = add nsw i32 %26, 1
  %28 = sext i32 %27 to i64
  %29 = call noundef nonnull align 4 dereferenceable(4) ptr @_ZNKSt6vectorIjSaIjEEixEm(ptr noundef nonnull align 8 dereferenceable(24) %25, i64 noundef %28) #5
  %30 = load i32, ptr %29, align 4, !tbaa !11
  %31 = load ptr, ptr %9, align 8, !tbaa !196
  %32 = load i32, ptr %11, align 4, !tbaa !11
  %33 = sext i32 %32 to i64
  %34 = call noundef nonnull align 4 dereferenceable(4) ptr @_ZNKSt6vectorIjSaIjEEixEm(ptr noundef nonnull align 8 dereferenceable(24) %31, i64 noundef %33) #5
  %35 = load i32, ptr %34, align 4, !tbaa !11
  %36 = sub i32 %30, %35
  store i32 %36, ptr %12, align 4, !tbaa !11
  %37 = load i32, ptr %12, align 4, !tbaa !11
  %38 = load i32, ptr %10, align 4, !tbaa !11
  %39 = icmp sgt i32 %37, %38
  br i1 %39, label %40, label %42

40:                                               ; preds = %24
  %41 = load i32, ptr %12, align 4, !tbaa !11
  store i32 %41, ptr %10, align 4, !tbaa !11
  br label %42

42:                                               ; preds = %40, %24
  call void @llvm.lifetime.end.p0(i64 4, ptr %12) #5
  br label %43

43:                                               ; preds = %42
  %44 = load i32, ptr %11, align 4, !tbaa !11
  %45 = add nsw i32 %44, 1
  store i32 %45, ptr %11, align 4, !tbaa !11
  br label %16, !llvm.loop !1679

46:                                               ; preds = %23
  %47 = load i32, ptr %10, align 4, !tbaa !11
  %48 = icmp sle i32 %47, 256
  br i1 %48, label %49, label %60

49:                                               ; preds = %46
  %50 = call noalias noundef nonnull ptr @_Znwm(i64 noundef 72) #29
  %51 = load i32, ptr %6, align 4, !tbaa !11
  %52 = load i32, ptr %7, align 4, !tbaa !11
  %53 = load i32, ptr %8, align 4, !tbaa !11
  %54 = load ptr, ptr %9, align 8, !tbaa !196
  invoke void @_ZN8LightGBM16MultiValDenseBinIhEC1EiiiRKSt6vectorIjSaIjEE(ptr noundef nonnull align 8 dereferenceable(72) %50, i32 noundef %51, i32 noundef %52, i32 noundef %53, ptr noundef nonnull align 8 dereferenceable(24) %54)
          to label %55 unwind label %56

55:                                               ; preds = %49
  store ptr %50, ptr %5, align 8
  store i32 1, ptr %15, align 4
  br label %85

56:                                               ; preds = %49
  %57 = landingpad { ptr, i32 }
          cleanup
  %58 = extractvalue { ptr, i32 } %57, 0
  store ptr %58, ptr %13, align 8
  %59 = extractvalue { ptr, i32 } %57, 1
  store i32 %59, ptr %14, align 4
  call void @_ZdlPv(ptr noundef %50) #28
  br label %87

60:                                               ; preds = %46
  %61 = load i32, ptr %10, align 4, !tbaa !11
  %62 = icmp sle i32 %61, 65536
  br i1 %62, label %63, label %74

63:                                               ; preds = %60
  %64 = call noalias noundef nonnull ptr @_Znwm(i64 noundef 72) #29
  %65 = load i32, ptr %6, align 4, !tbaa !11
  %66 = load i32, ptr %7, align 4, !tbaa !11
  %67 = load i32, ptr %8, align 4, !tbaa !11
  %68 = load ptr, ptr %9, align 8, !tbaa !196
  invoke void @_ZN8LightGBM16MultiValDenseBinItEC1EiiiRKSt6vectorIjSaIjEE(ptr noundef nonnull align 8 dereferenceable(72) %64, i32 noundef %65, i32 noundef %66, i32 noundef %67, ptr noundef nonnull align 8 dereferenceable(24) %68)
          to label %69 unwind label %70

69:                                               ; preds = %63
  store ptr %64, ptr %5, align 8
  store i32 1, ptr %15, align 4
  br label %85

70:                                               ; preds = %63
  %71 = landingpad { ptr, i32 }
          cleanup
  %72 = extractvalue { ptr, i32 } %71, 0
  store ptr %72, ptr %13, align 8
  %73 = extractvalue { ptr, i32 } %71, 1
  store i32 %73, ptr %14, align 4
  call void @_ZdlPv(ptr noundef %64) #28
  br label %87

74:                                               ; preds = %60
  %75 = call noalias noundef nonnull ptr @_Znwm(i64 noundef 72) #29
  %76 = load i32, ptr %6, align 4, !tbaa !11
  %77 = load i32, ptr %7, align 4, !tbaa !11
  %78 = load i32, ptr %8, align 4, !tbaa !11
  %79 = load ptr, ptr %9, align 8, !tbaa !196
  invoke void @_ZN8LightGBM16MultiValDenseBinIjEC1EiiiRKSt6vectorIjSaIjEE(ptr noundef nonnull align 8 dereferenceable(72) %75, i32 noundef %76, i32 noundef %77, i32 noundef %78, ptr noundef nonnull align 8 dereferenceable(24) %79)
          to label %80 unwind label %81

80:                                               ; preds = %74
  store ptr %75, ptr %5, align 8
  store i32 1, ptr %15, align 4
  br label %85

81:                                               ; preds = %74
  %82 = landingpad { ptr, i32 }
          cleanup
  %83 = extractvalue { ptr, i32 } %82, 0
  store ptr %83, ptr %13, align 8
  %84 = extractvalue { ptr, i32 } %82, 1
  store i32 %84, ptr %14, align 4
  call void @_ZdlPv(ptr noundef %75) #28
  br label %87

85:                                               ; preds = %80, %69, %55
  call void @llvm.lifetime.end.p0(i64 4, ptr %10) #5
  %86 = load ptr, ptr %5, align 8
  ret ptr %86

87:                                               ; preds = %81, %70, %56
  call void @llvm.lifetime.end.p0(i64 4, ptr %10) #5
  br label %88

88:                                               ; preds = %87
  %89 = load ptr, ptr %13, align 8
  %90 = load i32, ptr %14, align 4
  %91 = insertvalue { ptr, i32 } poison, ptr %89, 0
  %92 = insertvalue { ptr, i32 } %91, i32 %90, 1
  resume { ptr, i32 } %92
}