; Function Attrs: mustprogress uwtable
define noundef nonnull ptr @_ZN8LightGBM11MultiValBin22CreateMultiValDenseBinEiiiRKSt6vectorIjSaIjEE(i32 noundef %0, i32 noundef %1, i32 noundef %2, ptr noundef nonnull align 8 dereferenceable(24) %3) local_unnamed_addr #1 align 2 personality ptr @__gxx_personality_v0 {
  %5 = getelementptr inbounds nuw i8, ptr %3, i64 8
  %6 = load ptr, ptr %5, align 8, !tbaa !824
  %7 = load ptr, ptr %3, align 8, !tbaa !470
  %8 = ptrtoint ptr %6 to i64
  %9 = ptrtoint ptr %7 to i64
  %10 = sub i64 %8, %9
  %11 = lshr exact i64 %10, 2
  %12 = trunc i64 %11 to i32
  %13 = icmp sgt i32 %12, 1
  br i1 %13, label %.lr.ph.preheader, label %._crit_edge.thread

.lr.ph.preheader:                                 ; preds = %4
  %14 = add nuw nsw i64 %11, 4294967295
  %wide.trip.count = and i64 %14, 4294967295
  %.pre = load i32, ptr %7, align 4, !tbaa !10
  br label %.lr.ph

._crit_edge:                                      ; preds = %.lr.ph
  %15 = icmp slt i32 %spec.select, 257
  br i1 %15, label %._crit_edge.thread, label %23

.lr.ph:                                           ; preds = %.lr.ph.preheader, %.lr.ph
  %16 = phi i32 [ %.pre, %.lr.ph.preheader ], [ %18, %.lr.ph ]
  %indvars.iv = phi i64 [ 0, %.lr.ph.preheader ], [ %indvars.iv.next, %.lr.ph ]
  %.02932 = phi i32 [ 0, %.lr.ph.preheader ], [ %spec.select, %.lr.ph ]
  %indvars.iv.next = add nuw nsw i64 %indvars.iv, 1
  %17 = getelementptr inbounds nuw i32, ptr %7, i64 %indvars.iv.next
  %18 = load i32, ptr %17, align 4, !tbaa !10
  %19 = sub i32 %18, %16
  %spec.select = tail call i32 @llvm.smax.i32(i32 %19, i32 %.02932)
  %exitcond.not = icmp eq i64 %indvars.iv.next, %wide.trip.count
  br i1 %exitcond.not, label %._crit_edge, label %.lr.ph, !llvm.loop !1114

._crit_edge.thread:                               ; preds = %4, %._crit_edge
  %20 = tail call noalias noundef nonnull dereferenceable(72) ptr @_Znwm(i64 noundef 72) #38
  invoke void @_ZN8LightGBM16MultiValDenseBinIhEC1EiiiRKSt6vectorIjSaIjEE(ptr noundef nonnull align 8 dereferenceable(72) %20, i32 noundef %0, i32 noundef %1, i32 noundef %2, ptr noundef nonnull align 8 dereferenceable(24) %3)
          to label %32 unwind label %21

21:                                               ; preds = %._crit_edge.thread
  %22 = landingpad { ptr, i32 }
          cleanup
  br label %33

23:                                               ; preds = %._crit_edge
  %24 = icmp samesign ult i32 %spec.select, 65537
  %25 = tail call noalias noundef nonnull dereferenceable(72) ptr @_Znwm(i64 noundef 72) #38
  br i1 %24, label %26, label %29

26:                                               ; preds = %23
  invoke void @_ZN8LightGBM16MultiValDenseBinItEC1EiiiRKSt6vectorIjSaIjEE(ptr noundef nonnull align 8 dereferenceable(72) %25, i32 noundef %0, i32 noundef %1, i32 noundef %2, ptr noundef nonnull align 8 dereferenceable(24) %3)
          to label %32 unwind label %27

27:                                               ; preds = %26
  %28 = landingpad { ptr, i32 }
          cleanup
  br label %33

29:                                               ; preds = %23
  invoke void @_ZN8LightGBM16MultiValDenseBinIjEC1EiiiRKSt6vectorIjSaIjEE(ptr noundef nonnull align 8 dereferenceable(72) %25, i32 noundef %0, i32 noundef %1, i32 noundef %2, ptr noundef nonnull align 8 dereferenceable(24) %3)
          to label %32 unwind label %30

30:                                               ; preds = %29
  %31 = landingpad { ptr, i32 }
          cleanup
  br label %33

32:                                               ; preds = %29, %26, %._crit_edge.thread
  %.027 = phi ptr [ %20, %._crit_edge.thread ], [ %25, %26 ], [ %25, %29 ]
  ret ptr %.027

33:                                               ; preds = %30, %27, %21
  %.sink = phi ptr [ %25, %30 ], [ %25, %27 ], [ %20, %21 ]
  %.pn = phi { ptr, i32 } [ %31, %30 ], [ %28, %27 ], [ %22, %21 ]
  tail call void @_ZdlPv(ptr noundef nonnull %.sink) #37
  resume { ptr, i32 } %.pn
}